; Function Attrs: mustprogress uwtable
define dso_local void @_ZNK22btGImpactMeshShapePart15lockChildShapesEv(ptr noundef nonnull readonly align 8 captures(none) dereferenceable(280) %0) unnamed_addr #0 align 2 {
  %2 = getelementptr inbounds nuw i8, ptr %0, i64 176
  %3 = load ptr, ptr %2, align 8, !tbaa !43
  %4 = getelementptr inbounds nuw i8, ptr %3, i64 44
  %5 = load i32, ptr %4, align 4, !tbaa !46
  %6 = icmp sgt i32 %5, 0
  br i1 %6, label %7, label %9

7:                                                ; preds = %1
  %8 = add nuw nsw i32 %5, 1
  br label %_ZN22btGImpactMeshShapePart23TrimeshPrimitiveManager4lockEv.exit

9:                                                ; preds = %1
  %10 = getelementptr inbounds nuw i8, ptr %3, i64 16
  %11 = load ptr, ptr %10, align 8, !tbaa !47
  %12 = getelementptr inbounds nuw i8, ptr %3, i64 48
  %13 = getelementptr inbounds nuw i8, ptr %3, i64 56
  %14 = getelementptr inbounds nuw i8, ptr %3, i64 60
  %15 = getelementptr inbounds nuw i8, ptr %3, i64 64
  %16 = getelementptr inbounds nuw i8, ptr %3, i64 72
  %17 = getelementptr inbounds nuw i8, ptr %3, i64 80
  %18 = getelementptr inbounds nuw i8, ptr %3, i64 84
  %19 = getelementptr inbounds nuw i8, ptr %3, i64 88
  %20 = getelementptr inbounds nuw i8, ptr %3, i64 40
  %21 = load i32, ptr %20, align 8, !tbaa !48
  %22 = load ptr, ptr %11, align 8, !tbaa !30
  %23 = getelementptr inbounds nuw i8, ptr %22, i64 32
  %24 = load ptr, ptr %23, align 8
  tail call void %24(ptr noundef nonnull align 8 dereferenceable(24) %11, ptr noundef nonnull %12, ptr noundef nonnull align 4 dereferenceable(4) %13, ptr noundef nonnull align 4 dereferenceable(4) %14, ptr noundef nonnull align 4 dereferenceable(4) %15, ptr noundef nonnull %16, ptr noundef nonnull align 4 dereferenceable(4) %17, ptr noundef nonnull align 4 dereferenceable(4) %18, ptr noundef nonnull align 4 dereferenceable(4) %19, i32 noundef %21)
  br label %_ZN22btGImpactMeshShapePart23TrimeshPrimitiveManager4lockEv.exit

_ZN22btGImpactMeshShapePart23TrimeshPrimitiveManager4lockEv.exit: ; preds = %7, %9
  %storemerge.i = phi i32 [ 1, %9 ], [ %8, %7 ]
  store i32 %storemerge.i, ptr %4, align 4, !tbaa !46
  ret void
}